target datalayout = "e-m:e-p270:32:32-p271:32:32-p272:64:64-i64:64-i128:128-f80:128-n8:16:32:64-S128"
target triple = "x86_64-pc-linux-gnu"

%"class.google::protobuf::internal::InternalMetadata" = type { i64 }
%"class.google::protobuf::Message" = type { %"class.google::protobuf::MessageLite" }
%"class.google::protobuf::MessageLite" = type { ptr, %"class.google::protobuf::internal::InternalMetadata" }
%"class.google::protobuf::internal::RepeatedPtrFieldBase" = type { ptr, i32, i32, ptr }
%"class.google::protobuf::internal::CachedSize" = type { %"struct.std::atomic" }
%"struct.std::atomic" = type { %"struct.std::__atomic_base" }
%"struct.std::__atomic_base" = type { i32 }
%"class.opencv_tensorflow::FunctionDef" = type <{ %"class.google::protobuf::Message", %"class.google::protobuf::RepeatedPtrField.5", ptr, %"class.google::protobuf::internal::CachedSize", [4 x i8] }>
%"class.google::protobuf::RepeatedPtrField.5" = type { %"class.google::protobuf::internal::RepeatedPtrFieldBase" }
%"class.google::protobuf::internal::RepeatedPtrIterator.17" = type { ptr }
%"class.google::protobuf::internal::RepeatedPtrIterator.68" = type { ptr }
%"struct.google::protobuf::internal::RepeatedPtrFieldBase::Rep" = type { i32, [268435454 x ptr] }

; Function Attrs: mustprogress nounwind uwtable
define linkonce_odr hidden noundef i32 @_ZN6google8protobuf4Bits16Log2FloorNonZeroEj(i32 noundef %0) #7 comdat align 2 {
  %2 = alloca i32, align 4
  store i32 %0, ptr %2, align 4, !tbaa !31
  %3 = load i32, ptr %2, align 4, !tbaa !31
  %4 = call i32 @llvm.ctlz.i32(i32 %3, i1 true)
  %5 = xor i32 31, %4
  ret i32 %5
}

; Function Attrs: inlinehint mustprogress uwtable
define linkonce_odr hidden noundef i64 @_ZN6google8protobuf2io17CodedOutputStream12VarintSize32Ej(i32 noundef %0) #5 comdat align 2 {
  %2 = alloca i32, align 4
  %3 = alloca i32, align 4
  store i32 %0, ptr %2, align 4, !tbaa !31
  call void @llvm.lifetime.start.p0(i64 4, ptr %3) #3
  %4 = load i32, ptr %2, align 4, !tbaa !31
  %5 = or i32 %4, 1
  %6 = call noundef i32 @_ZN6google8protobuf4Bits16Log2FloorNonZeroEj(i32 noundef %5)
  store i32 %6, ptr %3, align 4, !tbaa !31
  %7 = load i32, ptr %3, align 4, !tbaa !31
  %8 = mul i32 %7, 9
  %9 = add i32 %8, 73
  %10 = udiv i32 %9, 64
  %11 = zext i32 %10 to i64
  call void @llvm.lifetime.end.p0(i64 4, ptr %3) #3
  ret i64 %11
}

; Function Attrs: inlinehint mustprogress nounwind uwtable
define linkonce_odr hidden noundef i32 @_ZNK6google8protobuf8internal20RepeatedPtrFieldBase4sizeEv(ptr noundef nonnull align 8 dereferenceable(24) %0) #6 comdat align 2 {
  %2 = alloca ptr, align 8
  store ptr %0, ptr %2, align 8, !tbaa !227
  %3 = load ptr, ptr %2, align 8
  %4 = getelementptr inbounds nuw %"class.google::protobuf::internal::RepeatedPtrFieldBase", ptr %3, i32 0, i32 1
  %5 = load i32, ptr %4, align 8, !tbaa !230
  ret i32 %5
}

; Function Attrs: inlinehint mustprogress nounwind uwtable
define linkonce_odr hidden noundef ptr @_ZN17opencv_tensorflow11FunctionDef25internal_default_instanceEv() #6 comdat align 2 {
  ret ptr @_ZN17opencv_tensorflow30_FunctionDef_default_instance_E
}

; Function Attrs: inlinehint mustprogress uwtable
define linkonce_odr hidden noundef i64 @_ZN6google8protobuf8internal14WireFormatLite19LengthDelimitedSizeEm(i64 noundef %0) #5 comdat align 2 {
  %2 = alloca i64, align 8
  store i64 %0, ptr %2, align 8, !tbaa !72
  %3 = load i64, ptr %2, align 8, !tbaa !72
  %4 = load i64, ptr %2, align 8, !tbaa !72
  %5 = trunc i64 %4 to i32
  %6 = call noundef i64 @_ZN6google8protobuf2io17CodedOutputStream12VarintSize32Ej(i32 noundef %5)
  %7 = add i64 %3, %6
  ret i64 %7
}

; Function Attrs: mustprogress nounwind uwtable
define linkonce_odr hidden void @_ZN6google8protobuf8internal19RepeatedPtrIteratorIKN17opencv_tensorflow16FunctionDef_NodeEEC2IS4_EERKNS2_IT_EE(ptr noundef nonnull align 8 dereferenceable(8) %0, ptr noundef nonnull align 8 dereferenceable(8) %1) unnamed_addr #7 comdat align 2 {
  %3 = alloca ptr, align 8
  %4 = alloca ptr, align 8
  store ptr %0, ptr %3, align 8, !tbaa !166
  store ptr %1, ptr %4, align 8, !tbaa !627
  %5 = load ptr, ptr %3, align 8
  %6 = getelementptr inbounds nuw %"class.google::protobuf::internal::RepeatedPtrIterator.17", ptr %5, i32 0, i32 0
  %7 = load ptr, ptr %4, align 8, !tbaa !627
  %8 = getelementptr inbounds nuw %"class.google::protobuf::internal::RepeatedPtrIterator.68", ptr %7, i32 0, i32 0
  %9 = load ptr, ptr %8, align 8, !tbaa !629
  store ptr %9, ptr %6, align 8, !tbaa !168
  ret void
}

; Function Attrs: mustprogress nounwind uwtable
define linkonce_odr hidden void @_ZN6google8protobuf8internal19RepeatedPtrIteratorIN17opencv_tensorflow16FunctionDef_NodeEEC2EPKPv(ptr noundef nonnull align 8 dereferenceable(8) %0, ptr noundef %1) unnamed_addr #7 comdat align 2 {
  %3 = alloca ptr, align 8
  %4 = alloca ptr, align 8
  store ptr %0, ptr %3, align 8, !tbaa !627
  store ptr %1, ptr %4, align 8, !tbaa !269
  %5 = load ptr, ptr %3, align 8
  %6 = getelementptr inbounds nuw %"class.google::protobuf::internal::RepeatedPtrIterator.68", ptr %5, i32 0, i32 0
  %7 = load ptr, ptr %4, align 8, !tbaa !269
  store ptr %7, ptr %6, align 8, !tbaa !629
  ret void
}

; Function Attrs: inlinehint mustprogress nounwind uwtable
define linkonce_odr hidden noundef ptr @_ZNK6google8protobuf8internal20RepeatedPtrFieldBase8raw_dataEv(ptr noundef nonnull align 8 dereferenceable(24) %0) #6 comdat align 2 {
  %2 = alloca ptr, align 8
  store ptr %0, ptr %2, align 8, !tbaa !227
  %3 = load ptr, ptr %2, align 8
  %4 = getelementptr inbounds nuw %"class.google::protobuf::internal::RepeatedPtrFieldBase", ptr %3, i32 0, i32 3
  %5 = load ptr, ptr %4, align 8, !tbaa !229
  %6 = icmp ne ptr %5, null
  br i1 %6, label %7, label %12

7:                                                ; preds = %1
  %8 = getelementptr inbounds nuw %"class.google::protobuf::internal::RepeatedPtrFieldBase", ptr %3, i32 0, i32 3
  %9 = load ptr, ptr %8, align 8, !tbaa !229
  %10 = getelementptr inbounds nuw %"struct.google::protobuf::internal::RepeatedPtrFieldBase::Rep", ptr %9, i32 0, i32 1
  %11 = getelementptr inbounds [268435454 x ptr], ptr %10, i64 0, i64 0
  br label %13

12:                                               ; preds = %1
  br label %13

13:                                               ; preds = %12, %7
  %14 = phi ptr [ %11, %7 ], [ null, %12 ]
  ret ptr %14
}

; Function Attrs: inlinehint mustprogress nounwind uwtable
define linkonce_odr hidden noundef i32 @_ZNK6google8protobuf16RepeatedPtrFieldIN17opencv_tensorflow16FunctionDef_NodeEE4sizeEv(ptr noundef nonnull align 8 dereferenceable(24) %0) #6 comdat align 2 {
  %2 = alloca ptr, align 8
  store ptr %0, ptr %2, align 8, !tbaa !159
  %3 = load ptr, ptr %2, align 8
  %4 = call noundef i32 @_ZNK6google8protobuf8internal20RepeatedPtrFieldBase4sizeEv(ptr noundef nonnull align 8 dereferenceable(24) %3)
  ret i32 %4
}

; Function Attrs: inlinehint mustprogress uwtable
define linkonce_odr hidden noundef i64 @_ZN6google8protobuf8internal14WireFormatLite11MessageSizeIN17opencv_tensorflow5OpDefEEEmRKT_(ptr noundef nonnull align 8 dereferenceable(128) %0) #5 comdat align 2 {
  %2 = alloca ptr, align 8
  store ptr %0, ptr %2, align 8, !tbaa !164
  %3 = load ptr, ptr %2, align 8, !tbaa !164
  %4 = call noundef i64 @_ZNK17opencv_tensorflow5OpDef12ByteSizeLongEv(ptr noundef nonnull align 8 dereferenceable(128) %3)
  %5 = call noundef i64 @_ZN6google8protobuf8internal14WireFormatLite19LengthDelimitedSizeEm(i64 noundef %4)
  ret i64 %5
}

; Function Attrs: inlinehint mustprogress uwtable
define linkonce_odr hidden noundef zeroext i1 @_ZNK17opencv_tensorflow11FunctionDef23_internal_has_signatureEv(ptr noundef nonnull align 8 dereferenceable(56) %0) #5 comdat align 2 {
  %2 = alloca ptr, align 8
  store ptr %0, ptr %2, align 8, !tbaa !68
  %3 = load ptr, ptr %2, align 8
  %4 = call noundef ptr @_ZN17opencv_tensorflow11FunctionDef25internal_default_instanceEv()
  %5 = icmp ne ptr %3, %4
  br i1 %5, label %6, label %10

6:                                                ; preds = %1
  %7 = getelementptr inbounds nuw %"class.opencv_tensorflow::FunctionDef", ptr %3, i32 0, i32 2
  %8 = load ptr, ptr %7, align 8, !tbaa !147
  %9 = icmp ne ptr %8, null
  br label %10

10:                                               ; preds = %6, %1
  %11 = phi i1 [ false, %1 ], [ %9, %6 ]
  ret i1 %11
}

; Function Attrs: mustprogress nounwind uwtable
define linkonce_odr hidden noundef nonnull align 8 dereferenceable(8) ptr @_ZN6google8protobuf8internal19RepeatedPtrIteratorIKN17opencv_tensorflow16FunctionDef_NodeEEppEv(ptr noundef nonnull align 8 dereferenceable(8) %0) #7 comdat align 2 {
  %2 = alloca ptr, align 8
  store ptr %0, ptr %2, align 8, !tbaa !166
  %3 = load ptr, ptr %2, align 8
  %4 = getelementptr inbounds nuw %"class.google::protobuf::internal::RepeatedPtrIterator.17", ptr %3, i32 0, i32 0
  %5 = load ptr, ptr %4, align 8, !tbaa !168
  %6 = getelementptr inbounds nuw ptr, ptr %5, i32 1
  store ptr %6, ptr %4, align 8, !tbaa !168
  ret ptr %3
}

; Function Attrs: inlinehint mustprogress uwtable
define linkonce_odr hidden noundef i64 @_ZN6google8protobuf8internal14WireFormatLite11MessageSizeIN17opencv_tensorflow16FunctionDef_NodeEEEmRKT_(ptr noundef nonnull align 8 dereferenceable(224) %0) #5 comdat align 2 {
  %2 = alloca ptr, align 8
  store ptr %0, ptr %2, align 8, !tbaa !88
  %3 = load ptr, ptr %2, align 8, !tbaa !88
  %4 = call noundef i64 @_ZNK17opencv_tensorflow16FunctionDef_Node12ByteSizeLongEv(ptr noundef nonnull align 8 dereferenceable(224) %3)
  %5 = call noundef i64 @_ZN6google8protobuf8internal14WireFormatLite19LengthDelimitedSizeEm(i64 noundef %4)
  ret i64 %5
}

; Function Attrs: mustprogress nounwind uwtable
define linkonce_odr hidden noundef nonnull align 8 dereferenceable(224) ptr @_ZNK6google8protobuf8internal19RepeatedPtrIteratorIKN17opencv_tensorflow16FunctionDef_NodeEEdeEv(ptr noundef nonnull align 8 dereferenceable(8) %0) #7 comdat align 2 {
  %2 = alloca ptr, align 8
  store ptr %0, ptr %2, align 8, !tbaa !166
  %3 = load ptr, ptr %2, align 8
  %4 = getelementptr inbounds nuw %"class.google::protobuf::internal::RepeatedPtrIterator.17", ptr %3, i32 0, i32 0
  %5 = load ptr, ptr %4, align 8, !tbaa !168
  %6 = load ptr, ptr %5, align 8, !tbaa !30
  ret ptr %6
}

; Function Attrs: mustprogress nounwind uwtable
define linkonce_odr hidden noundef zeroext i1 @_ZNK6google8protobuf8internal19RepeatedPtrIteratorIKN17opencv_tensorflow16FunctionDef_NodeEEneERKS6_(ptr noundef nonnull align 8 dereferenceable(8) %0, ptr noundef nonnull align 8 dereferenceable(8) %1) #7 comdat align 2 {
  %3 = alloca ptr, align 8
  %4 = alloca ptr, align 8
  store ptr %0, ptr %3, align 8, !tbaa !166
  store ptr %1, ptr %4, align 8, !tbaa !166
  %5 = load ptr, ptr %3, align 8
  %6 = getelementptr inbounds nuw %"class.google::protobuf::internal::RepeatedPtrIterator.17", ptr %5, i32 0, i32 0
  %7 = load ptr, ptr %6, align 8, !tbaa !168
  %8 = load ptr, ptr %4, align 8, !tbaa !166
  %9 = getelementptr inbounds nuw %"class.google::protobuf::internal::RepeatedPtrIterator.17", ptr %8, i32 0, i32 0
  %10 = load ptr, ptr %9, align 8, !tbaa !168
  %11 = icmp ne ptr %7, %10
  ret i1 %11
}

; Function Attrs: inlinehint mustprogress uwtable
define linkonce_odr hidden ptr @_ZNK6google8protobuf16RepeatedPtrFieldIN17opencv_tensorflow16FunctionDef_NodeEE3endEv(ptr noundef nonnull align 8 dereferenceable(24) %0) #5 comdat align 2 {
  %2 = alloca %"class.google::protobuf::internal::RepeatedPtrIterator.17", align 8
  %3 = alloca ptr, align 8
  %4 = alloca %"class.google::protobuf::internal::RepeatedPtrIterator.68", align 8
  store ptr %0, ptr %3, align 8, !tbaa !159
  %5 = load ptr, ptr %3, align 8
  call void @llvm.lifetime.start.p0(i64 8, ptr %4) #3
  %6 = call noundef ptr @_ZNK6google8protobuf8internal20RepeatedPtrFieldBase8raw_dataEv(ptr noundef nonnull align 8 dereferenceable(24) %5)
  %7 = call noundef i32 @_ZNK6google8protobuf16RepeatedPtrFieldIN17opencv_tensorflow16FunctionDef_NodeEE4sizeEv(ptr noundef nonnull align 8 dereferenceable(24) %5)
  %8 = sext i32 %7 to i64
  %9 = getelementptr inbounds ptr, ptr %6, i64 %8
  call void @_ZN6google8protobuf8internal19RepeatedPtrIteratorIN17opencv_tensorflow16FunctionDef_NodeEEC2EPKPv(ptr noundef nonnull align 8 dereferenceable(8) %4, ptr noundef %9)
  call void @_ZN6google8protobuf8internal19RepeatedPtrIteratorIKN17opencv_tensorflow16FunctionDef_NodeEEC2IS4_EERKNS2_IT_EE(ptr noundef nonnull align 8 dereferenceable(8) %2, ptr noundef nonnull align 8 dereferenceable(8) %4)
  call void @llvm.lifetime.end.p0(i64 8, ptr %4) #3
  %10 = getelementptr inbounds nuw %"class.google::protobuf::internal::RepeatedPtrIterator.17", ptr %2, i32 0, i32 0
  %11 = load ptr, ptr %10, align 8
  ret ptr %11
}

; Function Attrs: inlinehint mustprogress uwtable
define linkonce_odr hidden ptr @_ZNK6google8protobuf16RepeatedPtrFieldIN17opencv_tensorflow16FunctionDef_NodeEE5beginEv(ptr noundef nonnull align 8 dereferenceable(24) %0) #5 comdat align 2 {
  %2 = alloca %"class.google::protobuf::internal::RepeatedPtrIterator.17", align 8
  %3 = alloca ptr, align 8
  %4 = alloca %"class.google::protobuf::internal::RepeatedPtrIterator.68", align 8
  store ptr %0, ptr %3, align 8, !tbaa !159
  %5 = load ptr, ptr %3, align 8
  call void @llvm.lifetime.start.p0(i64 8, ptr %4) #3
  %6 = call noundef ptr @_ZNK6google8protobuf8internal20RepeatedPtrFieldBase8raw_dataEv(ptr noundef nonnull align 8 dereferenceable(24) %5)
  call void @_ZN6google8protobuf8internal19RepeatedPtrIteratorIN17opencv_tensorflow16FunctionDef_NodeEEC2EPKPv(ptr noundef nonnull align 8 dereferenceable(8) %4, ptr noundef %6)
  call void @_ZN6google8protobuf8internal19RepeatedPtrIteratorIKN17opencv_tensorflow16FunctionDef_NodeEEC2IS4_EERKNS2_IT_EE(ptr noundef nonnull align 8 dereferenceable(8) %2, ptr noundef nonnull align 8 dereferenceable(8) %4)
  call void @llvm.lifetime.end.p0(i64 8, ptr %4) #3
  %7 = getelementptr inbounds nuw %"class.google::protobuf::internal::RepeatedPtrIterator.17", ptr %2, i32 0, i32 0
  %8 = load ptr, ptr %7, align 8
  ret ptr %8
}

; Function Attrs: inlinehint mustprogress uwtable
define linkonce_odr hidden noundef i32 @_ZNK17opencv_tensorflow11FunctionDef19_internal_node_sizeEv(ptr noundef nonnull align 8 dereferenceable(56) %0) #5 comdat align 2 {
  %2 = alloca ptr, align 8
  store ptr %0, ptr %2, align 8, !tbaa !68
  %3 = load ptr, ptr %2, align 8
  %4 = getelementptr inbounds nuw %"class.opencv_tensorflow::FunctionDef", ptr %3, i32 0, i32 1
  %5 = call noundef i32 @_ZNK6google8protobuf16RepeatedPtrFieldIN17opencv_tensorflow16FunctionDef_NodeEE4sizeEv(ptr noundef nonnull align 8 dereferenceable(24) %4)
  ret i32 %5
}

; Function Attrs: mustprogress uwtable
define hidden noundef i64 @_ZNK17opencv_tensorflow11FunctionDef12ByteSizeLongEv(ptr noundef nonnull align 8 dereferenceable(56) %0) unnamed_addr #4 align 2 {
  %2 = alloca ptr, align 8
  %3 = alloca i64, align 8
  %4 = alloca i32, align 4
  %5 = alloca ptr, align 8
  %6 = alloca %"class.google::protobuf::internal::RepeatedPtrIterator.17", align 8
  %7 = alloca %"class.google::protobuf::internal::RepeatedPtrIterator.17", align 8
  %8 = alloca ptr, align 8
  store ptr %0, ptr %2, align 8, !tbaa !68
  %9 = load ptr, ptr %2, align 8
  call void @llvm.lifetime.start.p0(i64 8, ptr %3) #3
  store i64 0, ptr %3, align 8, !tbaa !72
  call void @llvm.lifetime.start.p0(i64 4, ptr %4) #3
  store i32 0, ptr %4, align 4, !tbaa !31
  %10 = call noundef i32 @_ZNK17opencv_tensorflow11FunctionDef19_internal_node_sizeEv(ptr noundef nonnull align 8 dereferenceable(56) %9)
  %11 = sext i32 %10 to i64
  %12 = mul i64 1, %11
  %13 = load i64, ptr %3, align 8, !tbaa !72
  %14 = add i64 %13, %12
  store i64 %14, ptr %3, align 8, !tbaa !72
  call void @llvm.lifetime.start.p0(i64 8, ptr %5) #3
  %15 = getelementptr inbounds nuw %"class.opencv_tensorflow::FunctionDef", ptr %9, i32 0, i32 1
  store ptr %15, ptr %5, align 8, !tbaa !159
  call void @llvm.lifetime.start.p0(i64 8, ptr %6) #3
  %16 = load ptr, ptr %5, align 8, !tbaa !159
  %17 = call ptr @_ZNK6google8protobuf16RepeatedPtrFieldIN17opencv_tensorflow16FunctionDef_NodeEE5beginEv(ptr noundef nonnull align 8 dereferenceable(24) %16)
  %18 = getelementptr inbounds nuw %"class.google::protobuf::internal::RepeatedPtrIterator.17", ptr %6, i32 0, i32 0
  store ptr %17, ptr %18, align 8
  call void @llvm.lifetime.start.p0(i64 8, ptr %7) #3
  %19 = load ptr, ptr %5, align 8, !tbaa !159
  %20 = call ptr @_ZNK6google8protobuf16RepeatedPtrFieldIN17opencv_tensorflow16FunctionDef_NodeEE3endEv(ptr noundef nonnull align 8 dereferenceable(24) %19)
  %21 = getelementptr inbounds nuw %"class.google::protobuf::internal::RepeatedPtrIterator.17", ptr %7, i32 0, i32 0
  store ptr %20, ptr %21, align 8
  br label %22

22:                                               ; preds = %31, %1
  %23 = call noundef zeroext i1 @_ZNK6google8protobuf8internal19RepeatedPtrIteratorIKN17opencv_tensorflow16FunctionDef_NodeEEneERKS6_(ptr noundef nonnull align 8 dereferenceable(8) %6, ptr noundef nonnull align 8 dereferenceable(8) %7)
  br i1 %23, label %25, label %24

24:                                               ; preds = %22
  call void @llvm.lifetime.end.p0(i64 8, ptr %7) #3
  call void @llvm.lifetime.end.p0(i64 8, ptr %6) #3
  call void @llvm.lifetime.end.p0(i64 8, ptr %5) #3
  br label %33

25:                                               ; preds = %22
  call void @llvm.lifetime.start.p0(i64 8, ptr %8) #3
  %26 = call noundef nonnull align 8 dereferenceable(224) ptr @_ZNK6google8protobuf8internal19RepeatedPtrIteratorIKN17opencv_tensorflow16FunctionDef_NodeEEdeEv(ptr noundef nonnull align 8 dereferenceable(8) %6)
  store ptr %26, ptr %8, align 8, !tbaa !88
  %27 = load ptr, ptr %8, align 8, !tbaa !88
  %28 = call noundef i64 @_ZN6google8protobuf8internal14WireFormatLite11MessageSizeIN17opencv_tensorflow16FunctionDef_NodeEEEmRKT_(ptr noundef nonnull align 8 dereferenceable(224) %27)
  %29 = load i64, ptr %3, align 8, !tbaa !72
  %30 = add i64 %29, %28
  store i64 %30, ptr %3, align 8, !tbaa !72
  call void @llvm.lifetime.end.p0(i64 8, ptr %8) #3
  br label %31

31:                                               ; preds = %25
  %32 = call noundef nonnull align 8 dereferenceable(8) ptr @_ZN6google8protobuf8internal19RepeatedPtrIteratorIKN17opencv_tensorflow16FunctionDef_NodeEEppEv(ptr noundef nonnull align 8 dereferenceable(8) %6)
  br label %22

33:                                               ; preds = %24
  %34 = call noundef zeroext i1 @_ZNK17opencv_tensorflow11FunctionDef23_internal_has_signatureEv(ptr noundef nonnull align 8 dereferenceable(56) %9)
  br i1 %34, label %35, label %42

35:                                               ; preds = %33
  %36 = getelementptr inbounds nuw %"class.opencv_tensorflow::FunctionDef", ptr %9, i32 0, i32 2
  %37 = load ptr, ptr %36, align 8, !tbaa !147
  %38 = call noundef i64 @_ZN6google8protobuf8internal14WireFormatLite11MessageSizeIN17opencv_tensorflow5OpDefEEEmRKT_(ptr noundef nonnull align 8 dereferenceable(128) %37)
  %39 = add i64 1, %38
  %40 = load i64, ptr %3, align 8, !tbaa !72
  %41 = add i64 %40, %39
  store i64 %41, ptr %3, align 8, !tbaa !72
  br label %42

42:                                               ; preds = %35, %33
  %43 = load i64, ptr %3, align 8, !tbaa !72
  %44 = getelementptr inbounds nuw %"class.opencv_tensorflow::FunctionDef", ptr %9, i32 0, i32 3
  %45 = call noundef i64 @_ZNK6google8protobuf7Message29MaybeComputeUnknownFieldsSizeEmPNS0_8internal10CachedSizeE(ptr noundef nonnull align 8 dereferenceable(16) %9, i64 noundef %43, ptr noundef %44)
  call void @llvm.lifetime.end.p0(i64 4, ptr %4) #3
  call void @llvm.lifetime.end.p0(i64 8, ptr %3) #3
  ret i64 %45
}