; Function Attrs: mustprogress uwtable
define hidden noundef i64 @_ZNK17opencv_tensorflow11FunctionDef12ByteSizeLongEv(ptr noundef nonnull align 8 dereferenceable(56) %0) unnamed_addr #3 align 2 {
  %2 = getelementptr inbounds nuw i8, ptr %0, i64 24
  %3 = load i32, ptr %2, align 8, !tbaa !20
  %4 = sext i32 %3 to i64
  %5 = getelementptr inbounds nuw i8, ptr %0, i64 32
  %6 = load ptr, ptr %5, align 8, !tbaa !16
  %.not.i.i = icmp eq ptr %6, null
  %7 = getelementptr inbounds nuw i8, ptr %6, i64 8
  %spec.select.i.i = select i1 %.not.i.i, ptr null, ptr %7
  %8 = getelementptr inbounds ptr, ptr %spec.select.i.i, i64 %4
  %.not12 = icmp eq i32 %3, 0
  br i1 %.not12, label %._crit_edge, label %.lr.ph

._crit_edge:                                      ; preds = %.lr.ph, %1
  %.0.lcssa = phi i64 [ 0, %1 ], [ %24, %.lr.ph ]
  %.not.i = icmp ne ptr %0, @_ZN17opencv_tensorflow30_FunctionDef_default_instance_E
  %9 = getelementptr inbounds nuw i8, ptr %0, i64 40
  %10 = load ptr, ptr %9, align 8
  %11 = icmp ne ptr %10, null
  %12 = select i1 %.not.i, i1 %11, i1 false
  br i1 %12, label %26, label %39

.lr.ph:                                           ; preds = %1, %.lr.ph
  %.014 = phi i64 [ %24, %.lr.ph ], [ %4, %1 ]
  %.sroa.09.013 = phi ptr [ %25, %.lr.ph ], [ %spec.select.i.i, %1 ]
  %13 = load ptr, ptr %.sroa.09.013, align 8, !tbaa !25
  %14 = tail call noundef i64 @_ZNK17opencv_tensorflow16FunctionDef_Node12ByteSizeLongEv(ptr noundef nonnull align 8 dereferenceable(224) %13)
  %15 = trunc i64 %14 to i32
  %16 = or i32 %15, 1
  %17 = tail call range(i32 0, 33) i32 @llvm.ctlz.i32(i32 %16, i1 true)
  %18 = xor i32 %17, 31
  %19 = mul nuw nsw i32 %18, 9
  %20 = add nuw nsw i32 %19, 73
  %21 = lshr i32 %20, 6
  %22 = zext nneg i32 %21 to i64
  %23 = add i64 %14, %.014
  %24 = add i64 %23, %22
  %25 = getelementptr inbounds nuw i8, ptr %.sroa.09.013, i64 8
  %.not = icmp eq ptr %25, %8
  br i1 %.not, label %._crit_edge, label %.lr.ph

26:                                               ; preds = %._crit_edge
  %27 = tail call noundef i64 @_ZNK17opencv_tensorflow5OpDef12ByteSizeLongEv(ptr noundef nonnull align 8 dereferenceable(128) %10)
  %28 = trunc i64 %27 to i32
  %29 = or i32 %28, 1
  %30 = tail call range(i32 0, 33) i32 @llvm.ctlz.i32(i32 %29, i1 true)
  %31 = xor i32 %30, 31
  %32 = mul nuw nsw i32 %31, 9
  %33 = add nuw nsw i32 %32, 73
  %34 = lshr i32 %33, 6
  %35 = zext nneg i32 %34 to i64
  %36 = add i64 %.0.lcssa, 1
  %37 = add i64 %36, %27
  %38 = add i64 %37, %35
  br label %39

39:                                               ; preds = %26, %._crit_edge
  %.1 = phi i64 [ %38, %26 ], [ %.0.lcssa, %._crit_edge ]
  %40 = getelementptr inbounds nuw i8, ptr %0, i64 48
  %41 = tail call noundef i64 @_ZNK6google8protobuf7Message29MaybeComputeUnknownFieldsSizeEmPNS0_8internal10CachedSizeE(ptr noundef nonnull align 8 dereferenceable(16) %0, i64 noundef %.1, ptr noundef nonnull %40)
  ret i64 %41
}